(i__main__
Tree
p0
(dp1
S'cargo'
p2
S'does it meow'
p3
sS'right'
p4
(i__main__
Tree
p5
(dp6
g2
S'cat'
p7
sg4
NsS'left'
p8
Nsbsg8
(i__main__
Tree
p9
(dp10
g2
S'does it bark'
p11
sg4
(i__main__
Tree
p12
(dp13
g2
S'dog'
p14
sg4
Nsg8
Nsbsg8
(i__main__
Tree
p15
(dp16
g2
S'does it eat bamboo'
p17
sg4
(i__main__
Tree
p18
(dp19
g2
S'panda'
p20
sg4
Nsg8
Nsbsg8
(i__main__
Tree
p21
(dp22
g2
S'it lives in antarctica'
p23
sg4
(i__main__
Tree
p24
(dp25
g2
S'is it very big'
p26
sg4
(i__main__
Tree
p27
(dp28
g2
S'polar bear'
p29
sg4
Nsg8
Nsbsg8
(i__main__
Tree
p30
(dp31
g2
S'penguin'
p32
sg4
Nsg8
Nsbsbsg8
(i__main__
Tree
p33
(dp34
g2
S'bird'
p35
sg4
Nsg8
Nsbsbsbsbsb.